; ModuleID = '22/439.c'
source_filename = "22/439.c"
target datalayout = "e-m:e-p270:32:32-p271:32:32-p272:64:64-i64:64-f80:128-n8:16:32:64-S128"
target triple = "x86_64-pc-linux-gnu"

@.str = private unnamed_addr constant [5 x i8] c"%d%c\00", align 1
@.str.1 = private unnamed_addr constant [3 x i8] c"No\00", align 1
@.str.2 = private unnamed_addr constant [3 x i8] c"%d\00", align 1

; Function Attrs: noinline nounwind uwtable
define dso_local void @main() #0 {
  %1 = alloca [300 x i32], align 16
  %2 = alloca i8, align 1
  %3 = alloca i32, align 4
  %4 = alloca i32, align 4
  %5 = alloca i32, align 4
  %6 = alloca i32, align 4
  store i32 0, i32* %4, align 4
  store i32 0, i32* %5, align 4
  store i32 0, i32* %3, align 4
  br label %7

7:                                                ; preds = %88, %0
  %8 = load i32, i32* %3, align 4
  %9 = icmp slt i32 %8, 300
  br i1 %9, label %10, label %91

10:                                               ; preds = %7
  %11 = load i32, i32* %3, align 4
  %12 = sext i32 %11 to i64
  %13 = getelementptr inbounds [300 x i32], [300 x i32]* %1, i64 0, i64 %12
  %14 = call i32 (i8*, ...) @__isoc99_scanf(i8* getelementptr inbounds ([5 x i8], [5 x i8]* @.str, i64 0, i64 0), i32* %13, i8* %2)
  %15 = load i8, i8* %2, align 1
  %16 = sext i8 %15 to i32
  %17 = icmp ne i32 %16, 10
  br i1 %17, label %18, label %52

18:                                               ; preds = %10
  %19 = load i32, i32* %3, align 4
  %20 = sext i32 %19 to i64
  %21 = getelementptr inbounds [300 x i32], [300 x i32]* %1, i64 0, i64 %20
  %22 = load i32, i32* %21, align 4
  %23 = load i32, i32* %4, align 4
  %24 = icmp sgt i32 %22, %23
  br i1 %24, label %25, label %31

25:                                               ; preds = %18
  %26 = load i32, i32* %4, align 4
  store i32 %26, i32* %5, align 4
  %27 = load i32, i32* %3, align 4
  %28 = sext i32 %27 to i64
  %29 = getelementptr inbounds [300 x i32], [300 x i32]* %1, i64 0, i64 %28
  %30 = load i32, i32* %29, align 4
  store i32 %30, i32* %4, align 4
  br label %51

31:                                               ; preds = %18
  %32 = load i32, i32* %3, align 4
  %33 = sext i32 %32 to i64
  %34 = getelementptr inbounds [300 x i32], [300 x i32]* %1, i64 0, i64 %33
  %35 = load i32, i32* %34, align 4
  %36 = load i32, i32* %4, align 4
  %37 = icmp slt i32 %35, %36
  br i1 %37, label %38, label %50

38:                                               ; preds = %31
  %39 = load i32, i32* %3, align 4
  %40 = sext i32 %39 to i64
  %41 = getelementptr inbounds [300 x i32], [300 x i32]* %1, i64 0, i64 %40
  %42 = load i32, i32* %41, align 4
  %43 = load i32, i32* %5, align 4
  %44 = icmp sgt i32 %42, %43
  br i1 %44, label %45, label %50

45:                                               ; preds = %38
  %46 = load i32, i32* %3, align 4
  %47 = sext i32 %46 to i64
  %48 = getelementptr inbounds [300 x i32], [300 x i32]* %1, i64 0, i64 %47
  %49 = load i32, i32* %48, align 4
  store i32 %49, i32* %5, align 4
  br label %50

50:                                               ; preds = %45, %38, %31
  br label %51

51:                                               ; preds = %50, %25
  br label %87

52:                                               ; preds = %10
  %53 = load i32, i32* %3, align 4
  %54 = sext i32 %53 to i64
  %55 = getelementptr inbounds [300 x i32], [300 x i32]* %1, i64 0, i64 %54
  %56 = load i32, i32* %55, align 4
  %57 = load i32, i32* %4, align 4
  %58 = icmp sgt i32 %56, %57
  br i1 %58, label %59, label %65

59:                                               ; preds = %52
  %60 = load i32, i32* %4, align 4
  store i32 %60, i32* %5, align 4
  %61 = load i32, i32* %3, align 4
  %62 = sext i32 %61 to i64
  %63 = getelementptr inbounds [300 x i32], [300 x i32]* %1, i64 0, i64 %62
  %64 = load i32, i32* %63, align 4
  store i32 %64, i32* %4, align 4
  br label %85

65:                                               ; preds = %52
  %66 = load i32, i32* %3, align 4
  %67 = sext i32 %66 to i64
  %68 = getelementptr inbounds [300 x i32], [300 x i32]* %1, i64 0, i64 %67
  %69 = load i32, i32* %68, align 4
  %70 = load i32, i32* %4, align 4
  %71 = icmp slt i32 %69, %70
  br i1 %71, label %72, label %84

72:                                               ; preds = %65
  %73 = load i32, i32* %3, align 4
  %74 = sext i32 %73 to i64
  %75 = getelementptr inbounds [300 x i32], [300 x i32]* %1, i64 0, i64 %74
  %76 = load i32, i32* %75, align 4
  %77 = load i32, i32* %5, align 4
  %78 = icmp sgt i32 %76, %77
  br i1 %78, label %79, label %84

79:                                               ; preds = %72
  %80 = load i32, i32* %3, align 4
  %81 = sext i32 %80 to i64
  %82 = getelementptr inbounds [300 x i32], [300 x i32]* %1, i64 0, i64 %81
  %83 = load i32, i32* %82, align 4
  store i32 %83, i32* %5, align 4
  br label %84

84:                                               ; preds = %79, %72, %65
  br label %85

85:                                               ; preds = %84, %59
  %86 = load i32, i32* %3, align 4
  store i32 %86, i32* %6, align 4
  br label %91

87:                                               ; preds = %51
  br label %88

88:                                               ; preds = %87
  %89 = load i32, i32* %3, align 4
  %90 = add nsw i32 %89, 1
  store i32 %90, i32* %3, align 4
  br label %7

91:                                               ; preds = %85, %7
  %92 = load i32, i32* %6, align 4
  %93 = icmp eq i32 %92, 0
  br i1 %93, label %94, label %96

94:                                               ; preds = %91
  %95 = call i32 (i8*, ...) @printf(i8* getelementptr inbounds ([3 x i8], [3 x i8]* @.str.1, i64 0, i64 0))
  br label %105

96:                                               ; preds = %91
  %97 = load i32, i32* %5, align 4
  %98 = icmp eq i32 %97, 0
  br i1 %98, label %99, label %101

99:                                               ; preds = %96
  %100 = call i32 (i8*, ...) @printf(i8* getelementptr inbounds ([3 x i8], [3 x i8]* @.str.1, i64 0, i64 0))
  br label %104

101:                                              ; preds = %96
  %102 = load i32, i32* %5, align 4
  %103 = call i32 (i8*, ...) @printf(i8* getelementptr inbounds ([3 x i8], [3 x i8]* @.str.2, i64 0, i64 0), i32 %102)
  br label %104

104:                                              ; preds = %101, %99
  br label %105

105:                                              ; preds = %104, %94
  ret void
}

declare dso_local i32 @__isoc99_scanf(i8*, ...) #1

declare dso_local i32 @printf(i8*, ...) #1


!llvm.module.flags = !{!0}
!llvm.ident = !{!1}

!0 = !{i32 1, !"wchar_size", i32 4}
!1 = !{!"clang version 10.0.0-4ubuntu1 "}
